; Function Attrs: mustprogress uwtable
define hidden void @_ZN3smt9theory_bv8get_bitsEiR10ref_vectorI4expr11ast_managerE(ptr nocapture noundef nonnull readonly align 8 dereferenceable(1048) %this, i32 noundef %v, ptr noundef nonnull align 8 dereferenceable(16) %r) local_unnamed_addr #3 align 2 personality ptr @__gxx_personality_v0 {
entry:
  %l = alloca %class.obj_ref, align 8
  %m_bits = getelementptr inbounds i8, ptr %this, i64 360
  %0 = load ptr, ptr %m_bits, align 8
  %idxprom.i = zext i32 %v to i64
  %arrayidx.i = getelementptr inbounds %class.svector.13, ptr %0, i64 %idxprom.i
  %1 = load ptr, ptr %arrayidx.i, align 8
  %cmp.i.i = icmp eq ptr %1, null
  br i1 %cmp.i.i, label %for.end, label %_ZN6vectorIN3sat7literalELb0EjE3endEv.exit

_ZN6vectorIN3sat7literalELb0EjE3endEv.exit:       ; preds = %entry
  %arrayidx.i.i = getelementptr inbounds i8, ptr %1, i64 -4
  %2 = load i32, ptr %arrayidx.i.i, align 4
  %3 = zext i32 %2 to i64
  %add.ptr.i = getelementptr inbounds %"class.sat::literal", ptr %1, i64 %3
  %cmp.not6 = icmp eq i32 %2, 0
  br i1 %cmp.not6, label %for.end, label %for.body.lr.ph

for.body.lr.ph:                                   ; preds = %_ZN6vectorIN3sat7literalELb0EjE3endEv.exit
  %m.i = getelementptr inbounds i8, ptr %this, i64 24
  %m_manager.i = getelementptr inbounds i8, ptr %l, i64 8
  %ctx = getelementptr inbounds i8, ptr %this, i64 16
  %m_nodes.i = getelementptr inbounds i8, ptr %r, i64 8
  br label %for.body

for.body:                                         ; preds = %for.body.lr.ph, %_ZN7obj_refI4expr11ast_managerED2Ev.exit
  %__begin1.07 = phi ptr [ %1, %for.body.lr.ph ], [ %incdec.ptr, %_ZN7obj_refI4expr11ast_managerED2Ev.exit ]
  %lit.sroa.0.0.copyload = load i32, ptr %__begin1.07, align 4
  %4 = load ptr, ptr %m.i, align 8
  store ptr null, ptr %l, align 8
  store ptr %4, ptr %m_manager.i, align 8
  %5 = load ptr, ptr %ctx, align 8
  invoke void @_ZNK3smt7context12literal2exprEN3sat7literalER7obj_refI4expr11ast_managerE(ptr noundef nonnull align 8 dereferenceable(11616) %5, i32 %lit.sroa.0.0.copyload, ptr noundef nonnull align 8 dereferenceable(16) %l)
          to label %invoke.cont unwind label %lpad

invoke.cont:                                      ; preds = %for.body
  %6 = load ptr, ptr %l, align 8
  %7 = load ptr, ptr %m_nodes.i, align 8
  %cmp.i.i4 = icmp eq ptr %7, null
  br i1 %cmp.i.i4, label %if.then.i.i, label %lor.lhs.false.i.i

lor.lhs.false.i.i:                                ; preds = %invoke.cont
  %arrayidx.i.i5 = getelementptr inbounds i8, ptr %7, i64 -4
  %8 = load i32, ptr %arrayidx.i.i5, align 4
  %arrayidx4.i.i = getelementptr inbounds i8, ptr %7, i64 -8
  %9 = load i32, ptr %arrayidx4.i.i, align 4
  %cmp5.i.i = icmp eq i32 %8, %9
  br i1 %cmp5.i.i, label %if.then.i.i, label %_ZN7obj_refI4expr11ast_managerED2Ev.exit

if.then.i.i:                                      ; preds = %lor.lhs.false.i.i, %invoke.cont
  invoke void @_ZN6vectorIP4exprLb0EjE13expand_vectorEv(ptr noundef nonnull align 8 dereferenceable(8) %m_nodes.i)
          to label %.noexc unwind label %lpad

.noexc:                                           ; preds = %if.then.i.i
  %.pre.i.i = load ptr, ptr %m_nodes.i, align 8
  %arrayidx8.phi.trans.insert.i.i = getelementptr inbounds i8, ptr %.pre.i.i, i64 -4
  %.pre1.i.i = load i32, ptr %arrayidx8.phi.trans.insert.i.i, align 4
  br label %_ZN7obj_refI4expr11ast_managerED2Ev.exit

_ZN7obj_refI4expr11ast_managerED2Ev.exit:         ; preds = %lor.lhs.false.i.i, %.noexc
  %10 = phi i32 [ %.pre1.i.i, %.noexc ], [ %8, %lor.lhs.false.i.i ]
  %11 = phi ptr [ %.pre.i.i, %.noexc ], [ %7, %lor.lhs.false.i.i ]
  %idx.ext.i.i = zext i32 %10 to i64
  %add.ptr.i.i = getelementptr inbounds ptr, ptr %11, i64 %idx.ext.i.i
  store ptr %6, ptr %add.ptr.i.i, align 8
  %12 = load ptr, ptr %m_nodes.i, align 8
  %arrayidx10.i.i = getelementptr inbounds i8, ptr %12, i64 -4
  %13 = load i32, ptr %arrayidx10.i.i, align 4
  %inc.i.i = add i32 %13, 1
  store i32 %inc.i.i, ptr %arrayidx10.i.i, align 4
  store ptr null, ptr %l, align 8
  %incdec.ptr = getelementptr inbounds i8, ptr %__begin1.07, i64 4
  %cmp.not = icmp eq ptr %incdec.ptr, %add.ptr.i
  br i1 %cmp.not, label %for.end, label %for.body

lpad:                                             ; preds = %if.then.i.i, %for.body
  %14 = landingpad { ptr, i32 }
          cleanup
  call void @_ZN7obj_refI4expr11ast_managerED2Ev(ptr noundef nonnull align 8 dereferenceable(16) %l) #23
  resume { ptr, i32 } %14

for.end:                                          ; preds = %_ZN7obj_refI4expr11ast_managerED2Ev.exit, %entry, %_ZN6vectorIN3sat7literalELb0EjE3endEv.exit
  ret void
}